; Function Attrs: nounwind uwtable
define internal void @CVAhermiteFree(ptr noundef readonly captures(none) %0) #0 {
  %2 = getelementptr inbounds nuw i8, ptr %0, i64 2192
  %3 = load ptr, ptr %2, align 8, !tbaa !3
  %4 = getelementptr inbounds nuw i8, ptr %3, i64 480
  %5 = load ptr, ptr %4, align 8, !tbaa !49
  tail call void @N_VDestroy(ptr noundef %5) #8
  %6 = getelementptr inbounds nuw i8, ptr %3, i64 160
  %7 = load i32, ptr %6, align 8, !tbaa !38
  %.not = icmp eq i32 %7, 0
  br i1 %.not, label %13, label %8

8:                                                ; preds = %1
  %9 = getelementptr inbounds nuw i8, ptr %3, i64 488
  %10 = load ptr, ptr %9, align 8, !tbaa !51
  %11 = getelementptr inbounds nuw i8, ptr %0, i64 140
  %12 = load i32, ptr %11, align 4, !tbaa !50
  tail call void @N_VDestroyVectorArray(ptr noundef %10, i32 noundef %12) #8
  br label %13

13:                                               ; preds = %8, %1
  %14 = getelementptr inbounds nuw i8, ptr %3, i64 96
  %15 = load ptr, ptr %14, align 8, !tbaa !27
  %16 = getelementptr inbounds nuw i8, ptr %3, i64 88
  %17 = load i64, ptr %16, align 8, !tbaa !26
  %.not2123 = icmp slt i64 %17, 0
  br i1 %.not2123, label %._crit_edge, label %.lr.ph

.lr.ph:                                           ; preds = %13
  %18 = getelementptr inbounds nuw i8, ptr %0, i64 140
  br label %19

19:                                               ; preds = %.lr.ph, %35
  %.024 = phi i64 [ 0, %.lr.ph ], [ %41, %35 ]
  %20 = getelementptr inbounds nuw ptr, ptr %15, i64 %.024
  %21 = load ptr, ptr %20, align 8, !tbaa !28
  %22 = getelementptr inbounds nuw i8, ptr %21, i64 8
  %23 = load ptr, ptr %22, align 8, !tbaa !57
  %24 = load ptr, ptr %23, align 8, !tbaa !52
  tail call void @N_VDestroy(ptr noundef %24) #8
  %25 = getelementptr inbounds nuw i8, ptr %23, i64 8
  %26 = load ptr, ptr %25, align 8, !tbaa !54
  tail call void @N_VDestroy(ptr noundef %26) #8
  %27 = load i32, ptr %6, align 8, !tbaa !38
  %.not22 = icmp eq i32 %27, 0
  br i1 %.not22, label %35, label %28

28:                                               ; preds = %19
  %29 = getelementptr inbounds nuw i8, ptr %23, i64 16
  %30 = load ptr, ptr %29, align 8, !tbaa !55
  %31 = load i32, ptr %18, align 4, !tbaa !50
  tail call void @N_VDestroyVectorArray(ptr noundef %30, i32 noundef %31) #8
  %32 = getelementptr inbounds nuw i8, ptr %23, i64 24
  %33 = load ptr, ptr %32, align 8, !tbaa !56
  %34 = load i32, ptr %18, align 4, !tbaa !50
  tail call void @N_VDestroyVectorArray(ptr noundef %33, i32 noundef %34) #8
  br label %35

35:                                               ; preds = %28, %19
  %36 = load ptr, ptr %20, align 8, !tbaa !28
  %37 = getelementptr inbounds nuw i8, ptr %36, i64 8
  %38 = load ptr, ptr %37, align 8, !tbaa !57
  tail call void @free(ptr noundef %38) #8
  %39 = load ptr, ptr %20, align 8, !tbaa !28
  %40 = getelementptr inbounds nuw i8, ptr %39, i64 8
  store ptr null, ptr %40, align 8, !tbaa !57
  %41 = add nuw nsw i64 %.024, 1
  %42 = load i64, ptr %16, align 8, !tbaa !26
  %.not21.not = icmp slt i64 %.024, %42
  br i1 %.not21.not, label %19, label %._crit_edge, !llvm.loop !61

._crit_edge:                                      ; preds = %35, %13
  ret void
}